target datalayout = "e-m:e-p270:32:32-p271:32:32-p272:64:64-i64:64-i128:128-f80:128-n8:16:32:64-S128"
target triple = "x86_64-pc-linux-gnu"

%struct.RelFileLocator = type { i32, i32, i32 }
%struct.PendingRelDelete = type { %struct.RelFileLocator, i32, i8, i32, ptr }

@pendingDeletes = internal global ptr null, align 8

; Function Attrs: nounwind uwtable
define dso_local i32 @smgrGetPendingDeletes(i1 noundef zeroext %0, ptr noundef %1) #0 {
  %3 = alloca i32, align 4
  %4 = alloca i8, align 1
  %5 = alloca ptr, align 8
  %6 = alloca i32, align 4
  %7 = alloca i32, align 4
  %8 = alloca ptr, align 8
  %9 = alloca ptr, align 8
  %10 = alloca i32, align 4
  %11 = zext i1 %0 to i8
  store i8 %11, ptr %4, align 1
  store ptr %1, ptr %5, align 8
  call void @llvm.lifetime.start.p0(i64 4, ptr %6) #8
  %12 = call i32 @GetCurrentTransactionNestLevel()
  store i32 %12, ptr %6, align 4
  call void @llvm.lifetime.start.p0(i64 4, ptr %7) #8
  call void @llvm.lifetime.start.p0(i64 8, ptr %8) #8
  call void @llvm.lifetime.start.p0(i64 8, ptr %9) #8
  store i32 0, ptr %7, align 4
  %13 = load ptr, ptr @pendingDeletes, align 8
  store ptr %13, ptr %9, align 8
  br label %14

14:                                               ; preds = %42, %2
  %15 = load ptr, ptr %9, align 8
  %16 = icmp ne ptr %15, null
  br i1 %16, label %17, label %46

17:                                               ; preds = %14
  %18 = load ptr, ptr %9, align 8
  %19 = getelementptr inbounds nuw %struct.PendingRelDelete, ptr %18, i32 0, i32 3
  %20 = load i32, ptr %19, align 4
  %21 = load i32, ptr %6, align 4
  %22 = icmp sge i32 %20, %21
  br i1 %22, label %23, label %41

23:                                               ; preds = %17
  %24 = load ptr, ptr %9, align 8
  %25 = getelementptr inbounds nuw %struct.PendingRelDelete, ptr %24, i32 0, i32 2
  %26 = load i8, ptr %25, align 8, !range !4, !noundef !5
  %27 = trunc i8 %26 to i1
  %28 = zext i1 %27 to i32
  %29 = load i8, ptr %4, align 1, !range !4, !noundef !5
  %30 = trunc i8 %29 to i1
  %31 = zext i1 %30 to i32
  %32 = icmp eq i32 %28, %31
  br i1 %32, label %33, label %41

33:                                               ; preds = %23
  %34 = load ptr, ptr %9, align 8
  %35 = getelementptr inbounds nuw %struct.PendingRelDelete, ptr %34, i32 0, i32 1
  %36 = load i32, ptr %35, align 4
  %37 = icmp eq i32 %36, -1
  br i1 %37, label %38, label %41

38:                                               ; preds = %33
  %39 = load i32, ptr %7, align 4
  %40 = add i32 %39, 1
  store i32 %40, ptr %7, align 4
  br label %41

41:                                               ; preds = %38, %33, %23, %17
  br label %42

42:                                               ; preds = %41
  %43 = load ptr, ptr %9, align 8
  %44 = getelementptr inbounds nuw %struct.PendingRelDelete, ptr %43, i32 0, i32 4
  %45 = load ptr, ptr %44, align 8
  store ptr %45, ptr %9, align 8
  br label %14, !llvm.loop !21

46:                                               ; preds = %14
  %47 = load i32, ptr %7, align 4
  %48 = icmp eq i32 %47, 0
  br i1 %48, label %49, label %51

49:                                               ; preds = %46
  %50 = load ptr, ptr %5, align 8
  store ptr null, ptr %50, align 8
  store i32 0, ptr %3, align 4
  store i32 1, ptr %10, align 4
  br label %96

51:                                               ; preds = %46
  %52 = load i32, ptr %7, align 4
  %53 = sext i32 %52 to i64
  %54 = mul i64 %53, 12
  %55 = call ptr @palloc(i64 noundef %54)
  store ptr %55, ptr %8, align 8
  %56 = load ptr, ptr %8, align 8
  %57 = load ptr, ptr %5, align 8
  store ptr %56, ptr %57, align 8
  %58 = load ptr, ptr @pendingDeletes, align 8
  store ptr %58, ptr %9, align 8
  br label %59

59:                                               ; preds = %90, %51
  %60 = load ptr, ptr %9, align 8
  %61 = icmp ne ptr %60, null
  br i1 %61, label %62, label %94

62:                                               ; preds = %59
  %63 = load ptr, ptr %9, align 8
  %64 = getelementptr inbounds nuw %struct.PendingRelDelete, ptr %63, i32 0, i32 3
  %65 = load i32, ptr %64, align 4
  %66 = load i32, ptr %6, align 4
  %67 = icmp sge i32 %65, %66
  br i1 %67, label %68, label %89

68:                                               ; preds = %62
  %69 = load ptr, ptr %9, align 8
  %70 = getelementptr inbounds nuw %struct.PendingRelDelete, ptr %69, i32 0, i32 2
  %71 = load i8, ptr %70, align 8, !range !4, !noundef !5
  %72 = trunc i8 %71 to i1
  %73 = zext i1 %72 to i32
  %74 = load i8, ptr %4, align 1, !range !4, !noundef !5
  %75 = trunc i8 %74 to i1
  %76 = zext i1 %75 to i32
  %77 = icmp eq i32 %73, %76
  br i1 %77, label %78, label %89

78:                                               ; preds = %68
  %79 = load ptr, ptr %9, align 8
  %80 = getelementptr inbounds nuw %struct.PendingRelDelete, ptr %79, i32 0, i32 1
  %81 = load i32, ptr %80, align 4
  %82 = icmp eq i32 %81, -1
  br i1 %82, label %83, label %89

83:                                               ; preds = %78
  %84 = load ptr, ptr %8, align 8
  %85 = load ptr, ptr %9, align 8
  %86 = getelementptr inbounds nuw %struct.PendingRelDelete, ptr %85, i32 0, i32 0
  call void @llvm.memcpy.p0.p0.i64(ptr align 4 %84, ptr align 8 %86, i64 12, i1 false)
  %87 = load ptr, ptr %8, align 8
  %88 = getelementptr inbounds nuw %struct.RelFileLocator, ptr %87, i32 1
  store ptr %88, ptr %8, align 8
  br label %89

89:                                               ; preds = %83, %78, %68, %62
  br label %90

90:                                               ; preds = %89
  %91 = load ptr, ptr %9, align 8
  %92 = getelementptr inbounds nuw %struct.PendingRelDelete, ptr %91, i32 0, i32 4
  %93 = load ptr, ptr %92, align 8
  store ptr %93, ptr %9, align 8
  br label %59, !llvm.loop !22

94:                                               ; preds = %59
  %95 = load i32, ptr %7, align 4
  store i32 %95, ptr %3, align 4
  store i32 1, ptr %10, align 4
  br label %96

96:                                               ; preds = %94, %49
  call void @llvm.lifetime.end.p0(i64 8, ptr %9) #8
  call void @llvm.lifetime.end.p0(i64 8, ptr %8) #8
  call void @llvm.lifetime.end.p0(i64 4, ptr %7) #8
  call void @llvm.lifetime.end.p0(i64 4, ptr %6) #8
  %97 = load i32, ptr %3, align 4
  ret i32 %97
}