; Function Attrs: nounwind uwtable
define dso_local i32 @smgrGetPendingDeletes(i1 noundef zeroext %0, ptr noundef writeonly captures(none) %1) local_unnamed_addr #0 {
  %3 = tail call i32 @GetCurrentTransactionNestLevel() #8
  %.032 = load ptr, ptr @pendingDeletes, align 8
  %.not33 = icmp eq ptr %.032, null
  br i1 %.not33, label %._crit_edge.thread, label %.lr.ph

.lr.ph:                                           ; preds = %2
  %4 = zext i1 %0 to i8
  br label %5

5:                                                ; preds = %.lr.ph, %17
  %.035 = phi ptr [ %.032, %.lr.ph ], [ %.0, %17 ]
  %.02634 = phi i32 [ 0, %.lr.ph ], [ %.127, %17 ]
  %6 = getelementptr inbounds nuw i8, ptr %.035, i64 20
  %7 = load i32, ptr %6, align 4
  %.not31 = icmp slt i32 %7, %3
  br i1 %.not31, label %17, label %8

8:                                                ; preds = %5
  %9 = getelementptr inbounds nuw i8, ptr %.035, i64 16
  %10 = load i8, ptr %9, align 8, !range !4, !noundef !5
  %11 = icmp eq i8 %10, %4
  br i1 %11, label %12, label %17

12:                                               ; preds = %8
  %13 = getelementptr inbounds nuw i8, ptr %.035, i64 12
  %14 = load i32, ptr %13, align 4
  %15 = icmp eq i32 %14, -1
  %16 = zext i1 %15 to i32
  %spec.select = add i32 %.02634, %16
  br label %17

17:                                               ; preds = %12, %5, %8
  %.127 = phi i32 [ %.02634, %8 ], [ %.02634, %5 ], [ %spec.select, %12 ]
  %18 = getelementptr inbounds nuw i8, ptr %.035, i64 24
  %.0 = load ptr, ptr %18, align 8
  %.not = icmp eq ptr %.0, null
  br i1 %.not, label %._crit_edge, label %5, !llvm.loop !21

._crit_edge:                                      ; preds = %17
  %19 = icmp eq i32 %.127, 0
  br i1 %19, label %._crit_edge.thread, label %20

._crit_edge.thread:                               ; preds = %2, %._crit_edge
  store ptr null, ptr %1, align 8
  br label %.loopexit

20:                                               ; preds = %._crit_edge
  %21 = sext i32 %.127 to i64
  %22 = mul nsw i64 %21, 12
  %23 = tail call ptr @palloc(i64 noundef %22) #8
  store ptr %23, ptr %1, align 8
  %.136 = load ptr, ptr @pendingDeletes, align 8
  %.not2937 = icmp eq ptr %.136, null
  br i1 %.not2937, label %.loopexit, label %.lr.ph41

.lr.ph41:                                         ; preds = %20
  %24 = zext i1 %0 to i8
  br label %25

25:                                               ; preds = %.lr.ph41, %38
  %.139 = phi ptr [ %.136, %.lr.ph41 ], [ %.1, %38 ]
  %.02438 = phi ptr [ %23, %.lr.ph41 ], [ %.125, %38 ]
  %26 = getelementptr inbounds nuw i8, ptr %.139, i64 20
  %27 = load i32, ptr %26, align 4
  %.not30 = icmp slt i32 %27, %3
  br i1 %.not30, label %38, label %28

28:                                               ; preds = %25
  %29 = getelementptr inbounds nuw i8, ptr %.139, i64 16
  %30 = load i8, ptr %29, align 8, !range !4, !noundef !5
  %31 = icmp eq i8 %30, %24
  br i1 %31, label %32, label %38

32:                                               ; preds = %28
  %33 = getelementptr inbounds nuw i8, ptr %.139, i64 12
  %34 = load i32, ptr %33, align 4
  %35 = icmp eq i32 %34, -1
  br i1 %35, label %36, label %38

36:                                               ; preds = %32
  tail call void @llvm.memcpy.p0.p0.i64(ptr noundef nonnull align 4 dereferenceable(12) %.02438, ptr noundef nonnull align 8 dereferenceable(12) %.139, i64 12, i1 false)
  %37 = getelementptr inbounds nuw i8, ptr %.02438, i64 12
  br label %38

38:                                               ; preds = %25, %28, %32, %36
  %.125 = phi ptr [ %37, %36 ], [ %.02438, %32 ], [ %.02438, %28 ], [ %.02438, %25 ]
  %39 = getelementptr inbounds nuw i8, ptr %.139, i64 24
  %.1 = load ptr, ptr %39, align 8
  %.not29 = icmp eq ptr %.1, null
  br i1 %.not29, label %.loopexit, label %25, !llvm.loop !22

.loopexit:                                        ; preds = %38, %20, %._crit_edge.thread
  %.026.lcssa43 = phi i32 [ %.127, %20 ], [ 0, %._crit_edge.thread ], [ %.127, %38 ]
  ret i32 %.026.lcssa43
}